target datalayout = "e-m:e-p270:32:32-p271:32:32-p272:64:64-i64:64-i128:128-f80:128-n8:16:32:64-S128"
target triple = "x86_64-pc-linux-gnu"

%struct.H5VL_loc_params_t = type { i32, i32, %union.anon }
%union.anon = type { %struct.H5VL_loc_by_idx }
%struct.H5VL_loc_by_idx = type { ptr, i32, i32, i64, i64 }
%struct.H5VL_object_t = type { ptr, ptr, i64 }

@H5_libinit_g = external global i8, align 1
@H5_libterm_g = external global i8, align 1
@.str = private unnamed_addr constant [103 x i8] c"generated/home/dtcxzyw/WorkSpace/Projects/compilers/llvm-opt-benchmark/bench/hdf5/hdf5/src/H5Adeprec.c\00", align 1
@__func__.H5Acreate1 = private unnamed_addr constant [11 x i8] c"H5Acreate1\00", align 1
@H5E_FUNC_g = external global i64, align 8
@H5E_CANTINIT_g = external global i64, align 8
@.str.1 = private unnamed_addr constant [30 x i8] c"library initialization failed\00", align 1
@H5E_CANTSET_g = external global i64, align 8
@.str.2 = private unnamed_addr constant [22 x i8] c"can't set API context\00", align 1
@H5E_ARGS_g = external global i64, align 8
@H5E_BADTYPE_g = external global i64, align 8
@.str.3 = private unnamed_addr constant [39 x i8] c"location is not valid for an attribute\00", align 1
@H5E_BADVALUE_g = external global i64, align 8
@.str.4 = private unnamed_addr constant [8 x i8] c"no name\00", align 1
@H5E_ATTR_g = external global i64, align 8
@.str.5 = private unnamed_addr constant [35 x i8] c"can't set collective metadata read\00", align 1
@H5P_LST_ATTRIBUTE_CREATE_ID_g = external global i64, align 8
@.str.6 = private unnamed_addr constant [28 x i8] c"invalid location identifier\00", align 1
@H5P_LST_ATTRIBUTE_ACCESS_ID_g = external global i64, align 8
@H5P_LST_DATASET_XFER_ID_g = external global i64, align 8
@.str.7 = private unnamed_addr constant [27 x i8] c"unable to create attribute\00", align 1
@H5E_CANTREGISTER_g = external global i64, align 8
@.str.8 = private unnamed_addr constant [36 x i8] c"unable to register attribute for ID\00", align 1
@H5E_CLOSEERROR_g = external global i64, align 8
@.str.9 = private unnamed_addr constant [22 x i8] c"can't close attribute\00", align 1

; Function Attrs: nounwind uwtable
define i64 @H5Acreate1(i64 noundef %0, ptr noundef %1, i64 noundef %2, i64 noundef %3, i64 noundef %4) #0 {
  %6 = alloca i64, align 8
  %7 = alloca ptr, align 8
  %8 = alloca i64, align 8
  %9 = alloca i64, align 8
  %10 = alloca i64, align 8
  %11 = alloca ptr, align 8
  %12 = alloca ptr, align 8
  %13 = alloca %struct.H5VL_loc_params_t, align 8
  %14 = alloca i64, align 8
  %15 = alloca i8, align 1
  %16 = alloca i8, align 1
  store i64 %0, ptr %6, align 8
  store ptr %1, ptr %7, align 8
  store i64 %2, ptr %8, align 8
  store i64 %3, ptr %9, align 8
  store i64 %4, ptr %10, align 8
  store ptr null, ptr %11, align 8
  store ptr null, ptr %12, align 8
  store i64 -1, ptr %14, align 8
  store i8 0, ptr %15, align 1
  store i8 0, ptr %16, align 1
  %17 = load i8, ptr @H5_libinit_g, align 1
  %18 = trunc i8 %17 to i1
  br i1 %18, label %23, label %19

19:                                               ; preds = %5
  %20 = load i8, ptr @H5_libterm_g, align 1
  %21 = trunc i8 %20 to i1
  %22 = xor i1 %21, true
  br label %23

23:                                               ; preds = %19, %5
  %24 = phi i1 [ false, %5 ], [ %22, %19 ]
  %25 = xor i1 %24, true
  %26 = xor i1 %25, true
  %27 = zext i1 %26 to i32
  %28 = sext i32 %27 to i64
  %29 = icmp ne i64 %28, 0
  br i1 %29, label %30, label %54

30:                                               ; preds = %23
  %31 = call i32 @H5_init_library()
  %32 = icmp slt i32 %31, 0
  %33 = xor i1 %32, true
  %34 = xor i1 %33, true
  %35 = zext i1 %34 to i32
  %36 = sext i32 %35 to i64
  %37 = icmp ne i64 %36, 0
  br i1 %37, label %38, label %53

38:                                               ; preds = %30
  br label %39

39:                                               ; preds = %38
  br label %40

40:                                               ; preds = %39
  br label %41

41:                                               ; preds = %40
  %42 = load i64, ptr @H5E_FUNC_g, align 8
  %43 = load i64, ptr @H5E_CANTINIT_g, align 8
  %44 = call i32 (ptr, ptr, i32, i64, i64, ptr, ...) @H5E_printf_stack(ptr noundef @.str, ptr noundef @__func__.H5Acreate1, i32 noundef 110, i64 noundef %42, i64 noundef %43, ptr noundef @.str.1)
  br label %45

45:                                               ; preds = %41
  store i8 1, ptr %16, align 1
  %46 = load i8, ptr %16, align 1
  %47 = trunc i8 %46 to i1
  %48 = zext i1 %47 to i8
  store i8 %48, ptr %16, align 1
  br label %49

49:                                               ; preds = %45
  br label %50

50:                                               ; preds = %49
  store i64 -1, ptr %14, align 8
  br label %215

51:                                               ; No predecessors!
  br label %52

52:                                               ; preds = %51
  br label %53

53:                                               ; preds = %52, %30
  br label %54

54:                                               ; preds = %53, %23
  %55 = call i32 @H5CX_push()
  %56 = icmp slt i32 %55, 0
  %57 = xor i1 %56, true
  %58 = xor i1 %57, true
  %59 = zext i1 %58 to i32
  %60 = sext i32 %59 to i64
  %61 = icmp ne i64 %60, 0
  br i1 %61, label %62, label %77

62:                                               ; preds = %54
  br label %63

63:                                               ; preds = %62
  br label %64

64:                                               ; preds = %63
  br label %65

65:                                               ; preds = %64
  %66 = load i64, ptr @H5E_FUNC_g, align 8
  %67 = load i64, ptr @H5E_CANTSET_g, align 8
  %68 = call i32 (ptr, ptr, i32, i64, i64, ptr, ...) @H5E_printf_stack(ptr noundef @.str, ptr noundef @__func__.H5Acreate1, i32 noundef 110, i64 noundef %66, i64 noundef %67, ptr noundef @.str.2)
  br label %69

69:                                               ; preds = %65
  store i8 1, ptr %16, align 1
  %70 = load i8, ptr %16, align 1
  %71 = trunc i8 %70 to i1
  %72 = zext i1 %71 to i8
  store i8 %72, ptr %16, align 1
  br label %73

73:                                               ; preds = %69
  br label %74

74:                                               ; preds = %73
  store i64 -1, ptr %14, align 8
  br label %215

75:                                               ; No predecessors!
  br label %76

76:                                               ; preds = %75
  br label %78

77:                                               ; preds = %54
  store i8 1, ptr %15, align 1
  br label %78

78:                                               ; preds = %77, %76
  %79 = call i32 @H5E_clear_stack()
  %80 = load i64, ptr %6, align 8
  %81 = call i32 @H5I_get_type(i64 noundef %80)
  %82 = icmp eq i32 7, %81
  br i1 %82, label %83, label %98

83:                                               ; preds = %78
  br label %84

84:                                               ; preds = %83
  br label %85

85:                                               ; preds = %84
  br label %86

86:                                               ; preds = %85
  %87 = load i64, ptr @H5E_ARGS_g, align 8
  %88 = load i64, ptr @H5E_BADTYPE_g, align 8
  %89 = call i32 (ptr, ptr, i32, i64, i64, ptr, ...) @H5E_printf_stack(ptr noundef @.str, ptr noundef @__func__.H5Acreate1, i32 noundef 114, i64 noundef %87, i64 noundef %88, ptr noundef @.str.3)
  br label %90

90:                                               ; preds = %86
  store i8 1, ptr %16, align 1
  %91 = load i8, ptr %16, align 1
  %92 = trunc i8 %91 to i1
  %93 = zext i1 %92 to i8
  store i8 %93, ptr %16, align 1
  br label %94

94:                                               ; preds = %90
  br label %95

95:                                               ; preds = %94
  store i64 -1, ptr %14, align 8
  br label %215

96:                                               ; No predecessors!
  br label %97

97:                                               ; preds = %96
  br label %98

98:                                               ; preds = %97, %78
  %99 = load ptr, ptr %7, align 8
  %100 = icmp ne ptr %99, null
  br i1 %100, label %101, label %105

101:                                              ; preds = %98
  %102 = load ptr, ptr %7, align 8
  %103 = load i8, ptr %102, align 1
  %104 = icmp ne i8 %103, 0
  br i1 %104, label %120, label %105

105:                                              ; preds = %101, %98
  br label %106

106:                                              ; preds = %105
  br label %107

107:                                              ; preds = %106
  br label %108

108:                                              ; preds = %107
  %109 = load i64, ptr @H5E_ARGS_g, align 8
  %110 = load i64, ptr @H5E_BADVALUE_g, align 8
  %111 = call i32 (ptr, ptr, i32, i64, i64, ptr, ...) @H5E_printf_stack(ptr noundef @.str, ptr noundef @__func__.H5Acreate1, i32 noundef 116, i64 noundef %109, i64 noundef %110, ptr noundef @.str.4)
  br label %112

112:                                              ; preds = %108
  store i8 1, ptr %16, align 1
  %113 = load i8, ptr %16, align 1
  %114 = trunc i8 %113 to i1
  %115 = zext i1 %114 to i8
  store i8 %115, ptr %16, align 1
  br label %116

116:                                              ; preds = %112
  br label %117

117:                                              ; preds = %116
  store i64 -1, ptr %14, align 8
  br label %215

118:                                              ; No predecessors!
  br label %119

119:                                              ; preds = %118
  br label %120

120:                                              ; preds = %119, %101
  %121 = load i64, ptr %6, align 8
  %122 = call i32 @H5CX_set_loc(i64 noundef %121)
  %123 = icmp slt i32 %122, 0
  br i1 %123, label %124, label %139

124:                                              ; preds = %120
  br label %125

125:                                              ; preds = %124
  br label %126

126:                                              ; preds = %125
  br label %127

127:                                              ; preds = %126
  %128 = load i64, ptr @H5E_ATTR_g, align 8
  %129 = load i64, ptr @H5E_CANTSET_g, align 8
  %130 = call i32 (ptr, ptr, i32, i64, i64, ptr, ...) @H5E_printf_stack(ptr noundef @.str, ptr noundef @__func__.H5Acreate1, i32 noundef 120, i64 noundef %128, i64 noundef %129, ptr noundef @.str.5)
  br label %131

131:                                              ; preds = %127
  store i8 1, ptr %16, align 1
  %132 = load i8, ptr %16, align 1
  %133 = trunc i8 %132 to i1
  %134 = zext i1 %133 to i8
  store i8 %134, ptr %16, align 1
  br label %135

135:                                              ; preds = %131
  br label %136

136:                                              ; preds = %135
  store i64 -1, ptr %14, align 8
  br label %215

137:                                              ; No predecessors!
  br label %138

138:                                              ; preds = %137
  br label %139

139:                                              ; preds = %138, %120
  %140 = load i64, ptr %10, align 8
  %141 = icmp eq i64 0, %140
  br i1 %141, label %142, label %144

142:                                              ; preds = %139
  %143 = load i64, ptr @H5P_LST_ATTRIBUTE_CREATE_ID_g, align 8
  store i64 %143, ptr %10, align 8
  br label %144

144:                                              ; preds = %142, %139
  %145 = getelementptr inbounds %struct.H5VL_loc_params_t, ptr %13, i32 0, i32 1
  store i32 0, ptr %145, align 4
  %146 = load i64, ptr %6, align 8
  %147 = call i32 @H5I_get_type(i64 noundef %146)
  %148 = getelementptr inbounds %struct.H5VL_loc_params_t, ptr %13, i32 0, i32 0
  store i32 %147, ptr %148, align 8
  %149 = load i64, ptr %6, align 8
  %150 = call ptr @H5VL_vol_object(i64 noundef %149)
  store ptr %150, ptr %12, align 8
  %151 = icmp eq ptr null, %150
  br i1 %151, label %152, label %167

152:                                              ; preds = %144
  br label %153

153:                                              ; preds = %152
  br label %154

154:                                              ; preds = %153
  br label %155

155:                                              ; preds = %154
  %156 = load i64, ptr @H5E_ARGS_g, align 8
  %157 = load i64, ptr @H5E_BADTYPE_g, align 8
  %158 = call i32 (ptr, ptr, i32, i64, i64, ptr, ...) @H5E_printf_stack(ptr noundef @.str, ptr noundef @__func__.H5Acreate1, i32 noundef 132, i64 noundef %156, i64 noundef %157, ptr noundef @.str.6)
  br label %159

159:                                              ; preds = %155
  store i8 1, ptr %16, align 1
  %160 = load i8, ptr %16, align 1
  %161 = trunc i8 %160 to i1
  %162 = zext i1 %161 to i8
  store i8 %162, ptr %16, align 1
  br label %163

163:                                              ; preds = %159
  br label %164

164:                                              ; preds = %163
  store i64 -1, ptr %14, align 8
  br label %215

165:                                              ; No predecessors!
  br label %166

166:                                              ; preds = %165
  br label %167

167:                                              ; preds = %166, %144
  %168 = load ptr, ptr %12, align 8
  %169 = load ptr, ptr %7, align 8
  %170 = load i64, ptr %8, align 8
  %171 = load i64, ptr %9, align 8
  %172 = load i64, ptr %10, align 8
  %173 = load i64, ptr @H5P_LST_ATTRIBUTE_ACCESS_ID_g, align 8
  %174 = load i64, ptr @H5P_LST_DATASET_XFER_ID_g, align 8
  %175 = call ptr @H5VL_attr_create(ptr noundef %168, ptr noundef %13, ptr noundef %169, i64 noundef %170, i64 noundef %171, i64 noundef %172, i64 noundef %173, i64 noundef %174, ptr noundef null)
  store ptr %175, ptr %11, align 8
  %176 = icmp eq ptr null, %175
  br i1 %176, label %177, label %192

177:                                              ; preds = %167
  br label %178

178:                                              ; preds = %177
  br label %179

179:                                              ; preds = %178
  br label %180

180:                                              ; preds = %179
  %181 = load i64, ptr @H5E_ATTR_g, align 8
  %182 = load i64, ptr @H5E_CANTINIT_g, align 8
  %183 = call i32 (ptr, ptr, i32, i64, i64, ptr, ...) @H5E_printf_stack(ptr noundef @.str, ptr noundef @__func__.H5Acreate1, i32 noundef 138, i64 noundef %181, i64 noundef %182, ptr noundef @.str.7)
  br label %184

184:                                              ; preds = %180
  store i8 1, ptr %16, align 1
  %185 = load i8, ptr %16, align 1
  %186 = trunc i8 %185 to i1
  %187 = zext i1 %186 to i8
  store i8 %187, ptr %16, align 1
  br label %188

188:                                              ; preds = %184
  br label %189

189:                                              ; preds = %188
  store i64 -1, ptr %14, align 8
  br label %215

190:                                              ; No predecessors!
  br label %191

191:                                              ; preds = %190
  br label %192

192:                                              ; preds = %191, %167
  %193 = load ptr, ptr %11, align 8
  %194 = load ptr, ptr %12, align 8
  %195 = getelementptr inbounds %struct.H5VL_object_t, ptr %194, i32 0, i32 1
  %196 = load ptr, ptr %195, align 8
  %197 = call i64 @H5VL_register(i32 noundef 7, ptr noundef %193, ptr noundef %196, i1 noundef zeroext true)
  store i64 %197, ptr %14, align 8
  %198 = icmp slt i64 %197, 0
  br i1 %198, label %199, label %214

199:                                              ; preds = %192
  br label %200

200:                                              ; preds = %199
  br label %201

201:                                              ; preds = %200
  br label %202

202:                                              ; preds = %201
  %203 = load i64, ptr @H5E_ATTR_g, align 8
  %204 = load i64, ptr @H5E_CANTREGISTER_g, align 8
  %205 = call i32 (ptr, ptr, i32, i64, i64, ptr, ...) @H5E_printf_stack(ptr noundef @.str, ptr noundef @__func__.H5Acreate1, i32 noundef 142, i64 noundef %203, i64 noundef %204, ptr noundef @.str.8)
  br label %206

206:                                              ; preds = %202
  store i8 1, ptr %16, align 1
  %207 = load i8, ptr %16, align 1
  %208 = trunc i8 %207 to i1
  %209 = zext i1 %208 to i8
  store i8 %209, ptr %16, align 1
  br label %210

210:                                              ; preds = %206
  br label %211

211:                                              ; preds = %210
  store i64 -1, ptr %14, align 8
  br label %215

212:                                              ; No predecessors!
  br label %213

213:                                              ; preds = %212
  br label %214

214:                                              ; preds = %213, %192
  br label %215

215:                                              ; preds = %214, %211, %189, %164, %136, %117, %95, %74, %50
  %216 = load i64, ptr %14, align 8
  %217 = icmp eq i64 -1, %216
  br i1 %217, label %218, label %240

218:                                              ; preds = %215
  %219 = load ptr, ptr %11, align 8
  %220 = icmp ne ptr %219, null
  br i1 %220, label %221, label %239

221:                                              ; preds = %218
  %222 = load ptr, ptr %12, align 8
  %223 = load i64, ptr @H5P_LST_DATASET_XFER_ID_g, align 8
  %224 = call i32 @H5VL_attr_close(ptr noundef %222, i64 noundef %223, ptr noundef null)
  %225 = icmp slt i32 %224, 0
  br i1 %225, label %226, label %239

226:                                              ; preds = %221
  br label %227

227:                                              ; preds = %226
  br label %228

228:                                              ; preds = %227
  br label %229

229:                                              ; preds = %228
  %230 = load i64, ptr @H5E_ATTR_g, align 8
  %231 = load i64, ptr @H5E_CLOSEERROR_g, align 8
  %232 = call i32 (ptr, ptr, i32, i64, i64, ptr, ...) @H5E_printf_stack(ptr noundef @.str, ptr noundef @__func__.H5Acreate1, i32 noundef 148, i64 noundef %230, i64 noundef %231, ptr noundef @.str.9)
  br label %233

233:                                              ; preds = %229
  store i8 1, ptr %16, align 1
  %234 = load i8, ptr %16, align 1
  %235 = trunc i8 %234 to i1
  %236 = zext i1 %235 to i8
  store i8 %236, ptr %16, align 1
  br label %237

237:                                              ; preds = %233
  store i64 -1, ptr %14, align 8
  br label %238

238:                                              ; preds = %237
  br label %239

239:                                              ; preds = %238, %221, %218
  br label %240

240:                                              ; preds = %239, %215
  %241 = load i8, ptr %15, align 1
  %242 = trunc i8 %241 to i1
  %243 = xor i1 %242, true
  %244 = xor i1 %243, true
  %245 = zext i1 %244 to i32
  %246 = sext i32 %245 to i64
  %247 = icmp ne i64 %246, 0
  br i1 %247, label %248, label %250

248:                                              ; preds = %240
  %249 = call i32 @H5CX_pop(i1 noundef zeroext true)
  store i8 0, ptr %15, align 1
  br label %250

250:                                              ; preds = %248, %240
  %251 = load i8, ptr %16, align 1
  %252 = trunc i8 %251 to i1
  %253 = xor i1 %252, true
  %254 = xor i1 %253, true
  %255 = zext i1 %254 to i32
  %256 = sext i32 %255 to i64
  %257 = icmp ne i64 %256, 0
  br i1 %257, label %258, label %260

258:                                              ; preds = %250
  %259 = call i32 @H5E_dump_api_stack()
  br label %260

260:                                              ; preds = %258, %250
  %261 = load i64, ptr %14, align 8
  ret i64 %261
}