; Function Attrs: nounwind uwtable
define range(i64 -1, -9223372036854775808) i64 @H5Acreate1(i64 noundef %0, ptr noundef %1, i64 noundef %2, i64 noundef %3, i64 noundef %4) local_unnamed_addr #0 {
  %6 = alloca %struct.H5VL_loc_params_t, align 8
  %7 = load i8, ptr @H5_libinit_g, align 1
  %8 = trunc i8 %7 to i1
  %9 = load i8, ptr @H5_libterm_g, align 1
  %10 = trunc i8 %9 to i1
  %11 = select i1 %8, i1 true, i1 %10
  br i1 %11, label %19, label %12

12:                                               ; preds = %5
  %13 = tail call i32 @H5_init_library() #2
  %14 = icmp slt i32 %13, 0
  br i1 %14, label %15, label %19

15:                                               ; preds = %12
  %16 = load i64, ptr @H5E_FUNC_g, align 8
  %17 = load i64, ptr @H5E_CANTINIT_g, align 8
  %18 = tail call i32 (ptr, ptr, i32, i64, i64, ptr, ...) @H5E_printf_stack(ptr noundef nonnull @.str, ptr noundef nonnull @__func__.H5Acreate1, i32 noundef 110, i64 noundef %16, i64 noundef %17, ptr noundef nonnull @.str.1) #2
  br label %.thread65

19:                                               ; preds = %12, %5
  %20 = tail call i32 @H5CX_push() #2
  %21 = icmp slt i32 %20, 0
  br i1 %21, label %22, label %26

22:                                               ; preds = %19
  %23 = load i64, ptr @H5E_FUNC_g, align 8
  %24 = load i64, ptr @H5E_CANTSET_g, align 8
  %25 = tail call i32 (ptr, ptr, i32, i64, i64, ptr, ...) @H5E_printf_stack(ptr noundef nonnull @.str, ptr noundef nonnull @__func__.H5Acreate1, i32 noundef 110, i64 noundef %23, i64 noundef %24, ptr noundef nonnull @.str.2) #2
  br label %.thread65

26:                                               ; preds = %19
  %27 = tail call i32 @H5E_clear_stack() #2
  %28 = tail call i32 @H5I_get_type(i64 noundef %0) #2
  %29 = icmp eq i32 %28, 7
  br i1 %29, label %30, label %34

30:                                               ; preds = %26
  %31 = load i64, ptr @H5E_ARGS_g, align 8
  %32 = load i64, ptr @H5E_BADTYPE_g, align 8
  %33 = tail call i32 (ptr, ptr, i32, i64, i64, ptr, ...) @H5E_printf_stack(ptr noundef nonnull @.str, ptr noundef nonnull @__func__.H5Acreate1, i32 noundef 114, i64 noundef %31, i64 noundef %32, ptr noundef nonnull @.str.3) #2
  br label %.thread74

34:                                               ; preds = %26
  %.not = icmp eq ptr %1, null
  br i1 %.not, label %37, label %35

35:                                               ; preds = %34
  %36 = load i8, ptr %1, align 1
  %.not42 = icmp eq i8 %36, 0
  br i1 %.not42, label %37, label %41

37:                                               ; preds = %34, %35
  %38 = load i64, ptr @H5E_ARGS_g, align 8
  %39 = load i64, ptr @H5E_BADVALUE_g, align 8
  %40 = tail call i32 (ptr, ptr, i32, i64, i64, ptr, ...) @H5E_printf_stack(ptr noundef nonnull @.str, ptr noundef nonnull @__func__.H5Acreate1, i32 noundef 116, i64 noundef %38, i64 noundef %39, ptr noundef nonnull @.str.4) #2
  br label %.thread74

41:                                               ; preds = %35
  %42 = tail call i32 @H5CX_set_loc(i64 noundef %0) #2
  %43 = icmp slt i32 %42, 0
  br i1 %43, label %44, label %48

44:                                               ; preds = %41
  %45 = load i64, ptr @H5E_ATTR_g, align 8
  %46 = load i64, ptr @H5E_CANTSET_g, align 8
  %47 = tail call i32 (ptr, ptr, i32, i64, i64, ptr, ...) @H5E_printf_stack(ptr noundef nonnull @.str, ptr noundef nonnull @__func__.H5Acreate1, i32 noundef 120, i64 noundef %45, i64 noundef %46, ptr noundef nonnull @.str.5) #2
  br label %.thread74

48:                                               ; preds = %41
  %49 = load i64, ptr @H5P_LST_ATTRIBUTE_CREATE_ID_g, align 8
  %50 = getelementptr inbounds i8, ptr %6, i64 4
  store i32 0, ptr %50, align 4
  %51 = tail call i32 @H5I_get_type(i64 noundef %0) #2
  store i32 %51, ptr %6, align 8
  %52 = tail call ptr @H5VL_vol_object(i64 noundef %0) #2
  %53 = icmp eq ptr %52, null
  br i1 %53, label %54, label %58

54:                                               ; preds = %48
  %55 = load i64, ptr @H5E_ARGS_g, align 8
  %56 = load i64, ptr @H5E_BADTYPE_g, align 8
  %57 = tail call i32 (ptr, ptr, i32, i64, i64, ptr, ...) @H5E_printf_stack(ptr noundef nonnull @.str, ptr noundef nonnull @__func__.H5Acreate1, i32 noundef 132, i64 noundef %55, i64 noundef %56, ptr noundef nonnull @.str.6) #2
  br label %.thread74

58:                                               ; preds = %48
  %59 = icmp eq i64 %4, 0
  %spec.select = select i1 %59, i64 %49, i64 %4
  %60 = load i64, ptr @H5P_LST_ATTRIBUTE_ACCESS_ID_g, align 8
  %61 = load i64, ptr @H5P_LST_DATASET_XFER_ID_g, align 8
  %62 = call ptr @H5VL_attr_create(ptr noundef nonnull %52, ptr noundef nonnull %6, ptr noundef nonnull %1, i64 noundef %2, i64 noundef %3, i64 noundef %spec.select, i64 noundef %60, i64 noundef %61, ptr noundef null) #2
  %63 = icmp eq ptr %62, null
  br i1 %63, label %64, label %68

64:                                               ; preds = %58
  %65 = load i64, ptr @H5E_ATTR_g, align 8
  %66 = load i64, ptr @H5E_CANTINIT_g, align 8
  %67 = call i32 (ptr, ptr, i32, i64, i64, ptr, ...) @H5E_printf_stack(ptr noundef nonnull @.str, ptr noundef nonnull @__func__.H5Acreate1, i32 noundef 138, i64 noundef %65, i64 noundef %66, ptr noundef nonnull @.str.7) #2
  br label %.thread74

68:                                               ; preds = %58
  %69 = getelementptr inbounds i8, ptr %52, i64 8
  %70 = load ptr, ptr %69, align 8
  %71 = call i64 @H5VL_register(i32 noundef 7, ptr noundef nonnull %62, ptr noundef %70, i1 noundef zeroext true) #2
  %72 = icmp slt i64 %71, 0
  br i1 %72, label %73, label %86

73:                                               ; preds = %68
  %74 = load i64, ptr @H5E_ATTR_g, align 8
  %75 = load i64, ptr @H5E_CANTREGISTER_g, align 8
  %76 = call i32 (ptr, ptr, i32, i64, i64, ptr, ...) @H5E_printf_stack(ptr noundef nonnull @.str, ptr noundef nonnull @__func__.H5Acreate1, i32 noundef 142, i64 noundef %74, i64 noundef %75, ptr noundef nonnull @.str.8) #2
  %77 = load i64, ptr @H5P_LST_DATASET_XFER_ID_g, align 8
  %78 = call i32 @H5VL_attr_close(ptr noundef nonnull %52, i64 noundef %77, ptr noundef null) #2
  %79 = icmp slt i32 %78, 0
  br i1 %79, label %80, label %.thread70

80:                                               ; preds = %73
  %81 = load i64, ptr @H5E_ATTR_g, align 8
  %82 = load i64, ptr @H5E_CLOSEERROR_g, align 8
  %83 = call i32 (ptr, ptr, i32, i64, i64, ptr, ...) @H5E_printf_stack(ptr noundef nonnull @.str, ptr noundef nonnull @__func__.H5Acreate1, i32 noundef 148, i64 noundef %81, i64 noundef %82, ptr noundef nonnull @.str.9) #2
  br label %.thread70

.thread70:                                        ; preds = %73, %80
  %84 = call i32 @H5CX_pop(i1 noundef zeroext true) #2
  br label %.thread65

.thread74:                                        ; preds = %30, %44, %54, %64, %37
  %85 = call i32 @H5CX_pop(i1 noundef zeroext true) #2
  br label %.thread65

86:                                               ; preds = %68
  %87 = call i32 @H5CX_pop(i1 noundef zeroext true) #2
  br label %89

.thread65:                                        ; preds = %15, %22, %.thread74, %.thread70
  %88 = call i32 @H5E_dump_api_stack() #2
  br label %89

89:                                               ; preds = %86, %.thread65
  %.1315568 = phi i64 [ -1, %.thread65 ], [ %71, %86 ]
  ret i64 %.1315568
}